; Function Attrs: nounwind uwtable
define ptr @Abc_FlowRetime_NtkSilentRestrash(ptr noundef %0, i32 noundef %1) local_unnamed_addr #0 {
  %3 = tail call ptr @Abc_NtkStartFrom(ptr noundef %0, i32 noundef 3, i32 noundef 3) #18
  %4 = getelementptr inbounds nuw i8, ptr %0, i64 32
  %5 = load ptr, ptr %4, align 8, !tbaa !56
  %6 = getelementptr i8, ptr %5, i64 4
  %.val38 = load i32, ptr %6, align 4, !tbaa !25
  %7 = icmp sgt i32 %.val38, 0
  br i1 %7, label %.lr.ph, label %.critedge

.lr.ph:                                           ; preds = %2
  %8 = getelementptr inbounds nuw i8, ptr %3, i64 256
  br label %9

9:                                                ; preds = %.lr.ph, %46
  %10 = phi ptr [ %5, %.lr.ph ], [ %47, %46 ]
  %indvars.iv = phi i64 [ 0, %.lr.ph ], [ %indvars.iv.next, %46 ]
  %11 = getelementptr i8, ptr %10, i64 8
  %.val28.val = load ptr, ptr %11, align 8, !tbaa !28
  %12 = getelementptr inbounds nuw ptr, ptr %.val28.val, i64 %indvars.iv
  %13 = load ptr, ptr %12, align 8, !tbaa !51
  %14 = icmp eq ptr %13, null
  br i1 %14, label %46, label %15

15:                                               ; preds = %9
  %16 = getelementptr i8, ptr %13, i64 20
  %.val29 = load i32, ptr %16, align 4
  %17 = and i32 %.val29, 15
  %.not37 = icmp eq i32 %17, 7
  br i1 %.not37, label %18, label %46

18:                                               ; preds = %15
  %19 = load ptr, ptr %8, align 8, !tbaa !91
  %.val.i = load ptr, ptr %13, align 8, !tbaa !52
  %20 = getelementptr i8, ptr %13, i64 32
  %.val2.i = load ptr, ptr %20, align 8, !tbaa !55
  %21 = getelementptr i8, ptr %.val.i, i64 32
  %.val.val.i = load ptr, ptr %21, align 8, !tbaa !56
  %.val2.val.i = load i32, ptr %.val2.i, align 4, !tbaa !48
  %22 = getelementptr i8, ptr %.val.val.i, i64 8
  %.val.val.val.i = load ptr, ptr %22, align 8, !tbaa !28
  %23 = sext i32 %.val2.val.i to i64
  %24 = getelementptr inbounds ptr, ptr %.val.val.val.i, i64 %23
  %25 = load ptr, ptr %24, align 8, !tbaa !51
  %26 = getelementptr inbounds nuw i8, ptr %25, i64 64
  %27 = load ptr, ptr %26, align 8, !tbaa !59
  %28 = ptrtoint ptr %27 to i64
  %29 = lshr i32 %.val29, 10
  %.lobit.i = and i32 %29, 1
  %30 = zext nneg i32 %.lobit.i to i64
  %31 = xor i64 %28, %30
  %32 = inttoptr i64 %31 to ptr
  %33 = getelementptr i8, ptr %.val2.i, i64 4
  %.val2.val.i33 = load i32, ptr %33, align 4, !tbaa !48
  %34 = sext i32 %.val2.val.i33 to i64
  %35 = getelementptr inbounds ptr, ptr %.val.val.val.i, i64 %34
  %36 = load ptr, ptr %35, align 8, !tbaa !51
  %37 = getelementptr inbounds nuw i8, ptr %36, i64 64
  %38 = load ptr, ptr %37, align 8, !tbaa !59
  %39 = ptrtoint ptr %38 to i64
  %40 = lshr i32 %.val29, 11
  %.lobit.i36 = and i32 %40, 1
  %41 = zext nneg i32 %.lobit.i36 to i64
  %42 = xor i64 %39, %41
  %43 = inttoptr i64 %42 to ptr
  %44 = tail call ptr @Abc_AigAnd(ptr noundef %19, ptr noundef %32, ptr noundef %43) #18
  %45 = getelementptr inbounds nuw i8, ptr %13, i64 64
  store ptr %44, ptr %45, align 8, !tbaa !59
  %.pre = load ptr, ptr %4, align 8, !tbaa !56
  br label %46

46:                                               ; preds = %18, %15, %9
  %47 = phi ptr [ %.pre, %18 ], [ %10, %15 ], [ %10, %9 ]
  %indvars.iv.next = add nuw nsw i64 %indvars.iv, 1
  %48 = getelementptr i8, ptr %47, i64 4
  %.val = load i32, ptr %48, align 4, !tbaa !25
  %49 = sext i32 %.val to i64
  %50 = icmp slt i64 %indvars.iv.next, %49
  br i1 %50, label %9, label %.critedge, !llvm.loop !92

.critedge:                                        ; preds = %46, %2
  tail call void @Abc_NtkFinalize(ptr noundef nonnull %0, ptr noundef %3) #18
  %.not = icmp eq i32 %1, 0
  br i1 %.not, label %55, label %51

51:                                               ; preds = %.critedge
  %52 = getelementptr inbounds nuw i8, ptr %3, i64 256
  %53 = load ptr, ptr %52, align 8, !tbaa !91
  %54 = tail call i32 @Abc_AigCleanup(ptr noundef %53) #18
  br label %55

55:                                               ; preds = %51, %.critedge
  %56 = getelementptr inbounds nuw i8, ptr %0, i64 328
  %57 = load ptr, ptr %56, align 8, !tbaa !93
  %.not25 = icmp eq ptr %57, null
  br i1 %.not25, label %61, label %58

58:                                               ; preds = %55
  %59 = tail call ptr @Abc_NtkDup(ptr noundef nonnull %57) #18
  %60 = getelementptr inbounds nuw i8, ptr %3, i64 328
  store ptr %59, ptr %60, align 8, !tbaa !93
  br label %61

61:                                               ; preds = %58, %55
  %62 = tail call i32 @Abc_NtkCheck(ptr noundef %3) #18
  %.not26 = icmp eq i32 %62, 0
  br i1 %.not26, label %63, label %64

63:                                               ; preds = %61
  %puts = tail call i32 @puts(ptr nonnull dereferenceable(1) @str.8)
  tail call void @Abc_NtkDelete(ptr noundef %3) #18
  br label %64

64:                                               ; preds = %61, %63
  %.0 = phi ptr [ null, %63 ], [ %3, %61 ]
  ret ptr %.0
}